; Function Attrs: mustprogress nofree norecurse nosync nounwind willreturn memory(read, inaccessiblemem: none) uwtable
define ptr @Abc_NodeReadRequired(ptr noundef readonly captures(none) %0) local_unnamed_addr #1 {
  %.val = load ptr, ptr %0, align 8
  %2 = getelementptr i8, ptr %0, i64 16
  %.val1 = load i32, ptr %2, align 8
  %3 = getelementptr i8, ptr %.val, i64 264
  %.val.val = load ptr, ptr %3, align 8
  %4 = getelementptr i8, ptr %.val.val, i64 24
  %.val.val.val = load ptr, ptr %4, align 8
  %5 = getelementptr i8, ptr %.val.val.val, i64 8
  %.val.val.val.val = load ptr, ptr %5, align 8
  %6 = sext i32 %.val1 to i64
  %7 = getelementptr inbounds ptr, ptr %.val.val.val.val, i64 %6
  %8 = load ptr, ptr %7, align 8
  ret ptr %8
}